; Function Attrs: mustprogress nounwind uwtable
define void @_ZN6casadi3MapD2Ev(ptr noundef nonnull align 8 dereferenceable(1320) %0) unnamed_addr #6 align 2 personality ptr @__gxx_personality_v0 {
  store ptr getelementptr inbounds ({ [113 x ptr] }, ptr @_ZTVN6casadi3MapE, i64 0, i32 0, i64 2), ptr %0, align 8
  invoke void @_ZN6casadi13ProtoFunction9clear_memEv(ptr noundef nonnull align 8 dereferenceable(168) %0)
          to label %2 unwind label %4

2:                                                ; preds = %1
  %3 = getelementptr inbounds i8, ptr %0, i64 1304
  tail call void @_ZN6casadi8FunctionD1Ev(ptr noundef nonnull align 8 dereferenceable(8) %3) #18
  tail call void @_ZN6casadi16FunctionInternalD2Ev(ptr noundef nonnull align 8 dereferenceable(1304) %0) #18
  ret void

4:                                                ; preds = %1
  %5 = landingpad { ptr, i32 }
          catch ptr null
  %6 = extractvalue { ptr, i32 } %5, 0
  tail call void @__clang_call_terminate(ptr %6) #20
  unreachable
}